; ModuleID = '9/767.c'
source_filename = "9/767.c"
target datalayout = "e-m:e-p270:32:32-p271:32:32-p272:64:64-i64:64-f80:128-n8:16:32:64-S128"
target triple = "x86_64-pc-linux-gnu"

%struct.patient = type { [10 x i8], i32 }

@.str = private unnamed_addr constant [3 x i8] c"%d\00", align 1
@.str.1 = private unnamed_addr constant [6 x i8] c"%s %d\00", align 1
@.str.2 = private unnamed_addr constant [4 x i8] c"%s\0A\00", align 1

; Function Attrs: noinline nounwind uwtable
define dso_local void @main() #0 {
  %1 = alloca [100 x %struct.patient], align 16
  %2 = alloca i32, align 4
  %3 = alloca i32, align 4
  %4 = alloca i32, align 4
  %5 = alloca i32, align 4
  %6 = alloca [10 x i8], align 1
  %7 = call i32 (i8*, ...) @__isoc99_scanf(i8* getelementptr inbounds ([3 x i8], [3 x i8]* @.str, i64 0, i64 0), i32* %2)
  store i32 0, i32* %3, align 4
  br label %8

8:                                                ; preds = %23, %0
  %9 = load i32, i32* %3, align 4
  %10 = load i32, i32* %2, align 4
  %11 = icmp slt i32 %9, %10
  br i1 %11, label %12, label %26

12:                                               ; preds = %8
  %13 = load i32, i32* %3, align 4
  %14 = sext i32 %13 to i64
  %15 = getelementptr inbounds [100 x %struct.patient], [100 x %struct.patient]* %1, i64 0, i64 %14
  %16 = getelementptr inbounds %struct.patient, %struct.patient* %15, i32 0, i32 0
  %17 = getelementptr inbounds [10 x i8], [10 x i8]* %16, i64 0, i64 0
  %18 = load i32, i32* %3, align 4
  %19 = sext i32 %18 to i64
  %20 = getelementptr inbounds [100 x %struct.patient], [100 x %struct.patient]* %1, i64 0, i64 %19
  %21 = getelementptr inbounds %struct.patient, %struct.patient* %20, i32 0, i32 1
  %22 = call i32 (i8*, ...) @__isoc99_scanf(i8* getelementptr inbounds ([6 x i8], [6 x i8]* @.str.1, i64 0, i64 0), i8* %17, i32* %21)
  br label %23

23:                                               ; preds = %12
  %24 = load i32, i32* %3, align 4
  %25 = add nsw i32 %24, 1
  store i32 %25, i32* %3, align 4
  br label %8

26:                                               ; preds = %8
  store i32 0, i32* %3, align 4
  br label %27

27:                                               ; preds = %111, %26
  %28 = load i32, i32* %3, align 4
  %29 = load i32, i32* %2, align 4
  %30 = icmp slt i32 %28, %29
  br i1 %30, label %31, label %114

31:                                               ; preds = %27
  %32 = load i32, i32* %3, align 4
  %33 = sext i32 %32 to i64
  %34 = getelementptr inbounds [100 x %struct.patient], [100 x %struct.patient]* %1, i64 0, i64 %33
  %35 = getelementptr inbounds %struct.patient, %struct.patient* %34, i32 0, i32 1
  %36 = load i32, i32* %35, align 4
  %37 = icmp sge i32 %36, 60
  br i1 %37, label %38, label %110

38:                                               ; preds = %31
  %39 = load i32, i32* %3, align 4
  store i32 %39, i32* %4, align 4
  br label %40

40:                                               ; preds = %106, %38
  %41 = load i32, i32* %4, align 4
  %42 = icmp sgt i32 %41, 0
  br i1 %42, label %43, label %109

43:                                               ; preds = %40
  %44 = load i32, i32* %4, align 4
  %45 = sext i32 %44 to i64
  %46 = getelementptr inbounds [100 x %struct.patient], [100 x %struct.patient]* %1, i64 0, i64 %45
  %47 = getelementptr inbounds %struct.patient, %struct.patient* %46, i32 0, i32 1
  %48 = load i32, i32* %47, align 4
  %49 = load i32, i32* %4, align 4
  %50 = sub nsw i32 %49, 1
  %51 = sext i32 %50 to i64
  %52 = getelementptr inbounds [100 x %struct.patient], [100 x %struct.patient]* %1, i64 0, i64 %51
  %53 = getelementptr inbounds %struct.patient, %struct.patient* %52, i32 0, i32 1
  %54 = load i32, i32* %53, align 4
  %55 = icmp sgt i32 %48, %54
  br i1 %55, label %56, label %105

56:                                               ; preds = %43
  %57 = load i32, i32* %4, align 4
  %58 = sext i32 %57 to i64
  %59 = getelementptr inbounds [100 x %struct.patient], [100 x %struct.patient]* %1, i64 0, i64 %58
  %60 = getelementptr inbounds %struct.patient, %struct.patient* %59, i32 0, i32 1
  %61 = load i32, i32* %60, align 4
  store i32 %61, i32* %5, align 4
  %62 = load i32, i32* %4, align 4
  %63 = sub nsw i32 %62, 1
  %64 = sext i32 %63 to i64
  %65 = getelementptr inbounds [100 x %struct.patient], [100 x %struct.patient]* %1, i64 0, i64 %64
  %66 = getelementptr inbounds %struct.patient, %struct.patient* %65, i32 0, i32 1
  %67 = load i32, i32* %66, align 4
  %68 = load i32, i32* %4, align 4
  %69 = sext i32 %68 to i64
  %70 = getelementptr inbounds [100 x %struct.patient], [100 x %struct.patient]* %1, i64 0, i64 %69
  %71 = getelementptr inbounds %struct.patient, %struct.patient* %70, i32 0, i32 1
  store i32 %67, i32* %71, align 4
  %72 = load i32, i32* %5, align 4
  %73 = load i32, i32* %4, align 4
  %74 = sub nsw i32 %73, 1
  %75 = sext i32 %74 to i64
  %76 = getelementptr inbounds [100 x %struct.patient], [100 x %struct.patient]* %1, i64 0, i64 %75
  %77 = getelementptr inbounds %struct.patient, %struct.patient* %76, i32 0, i32 1
  store i32 %72, i32* %77, align 4
  %78 = getelementptr inbounds [10 x i8], [10 x i8]* %6, i64 0, i64 0
  %79 = load i32, i32* %4, align 4
  %80 = sext i32 %79 to i64
  %81 = getelementptr inbounds [100 x %struct.patient], [100 x %struct.patient]* %1, i64 0, i64 %80
  %82 = getelementptr inbounds %struct.patient, %struct.patient* %81, i32 0, i32 0
  %83 = getelementptr inbounds [10 x i8], [10 x i8]* %82, i64 0, i64 0
  %84 = call i8* @strcpy(i8* %78, i8* %83) #3
  %85 = load i32, i32* %4, align 4
  %86 = sext i32 %85 to i64
  %87 = getelementptr inbounds [100 x %struct.patient], [100 x %struct.patient]* %1, i64 0, i64 %86
  %88 = getelementptr inbounds %struct.patient, %struct.patient* %87, i32 0, i32 0
  %89 = getelementptr inbounds [10 x i8], [10 x i8]* %88, i64 0, i64 0
  %90 = load i32, i32* %4, align 4
  %91 = sub nsw i32 %90, 1
  %92 = sext i32 %91 to i64
  %93 = getelementptr inbounds [100 x %struct.patient], [100 x %struct.patient]* %1, i64 0, i64 %92
  %94 = getelementptr inbounds %struct.patient, %struct.patient* %93, i32 0, i32 0
  %95 = getelementptr inbounds [10 x i8], [10 x i8]* %94, i64 0, i64 0
  %96 = call i8* @strcpy(i8* %89, i8* %95) #3
  %97 = load i32, i32* %4, align 4
  %98 = sub nsw i32 %97, 1
  %99 = sext i32 %98 to i64
  %100 = getelementptr inbounds [100 x %struct.patient], [100 x %struct.patient]* %1, i64 0, i64 %99
  %101 = getelementptr inbounds %struct.patient, %struct.patient* %100, i32 0, i32 0
  %102 = getelementptr inbounds [10 x i8], [10 x i8]* %101, i64 0, i64 0
  %103 = getelementptr inbounds [10 x i8], [10 x i8]* %6, i64 0, i64 0
  %104 = call i8* @strcpy(i8* %102, i8* %103) #3
  br label %105

105:                                              ; preds = %56, %43
  br label %106

106:                                              ; preds = %105
  %107 = load i32, i32* %4, align 4
  %108 = add nsw i32 %107, -1
  store i32 %108, i32* %4, align 4
  br label %40

109:                                              ; preds = %40
  br label %110

110:                                              ; preds = %109, %31
  br label %111

111:                                              ; preds = %110
  %112 = load i32, i32* %3, align 4
  %113 = add nsw i32 %112, 1
  store i32 %113, i32* %3, align 4
  br label %27

114:                                              ; preds = %27
  store i32 0, i32* %3, align 4
  br label %115

115:                                              ; preds = %126, %114
  %116 = load i32, i32* %3, align 4
  %117 = load i32, i32* %2, align 4
  %118 = icmp slt i32 %116, %117
  br i1 %118, label %119, label %129

119:                                              ; preds = %115
  %120 = load i32, i32* %3, align 4
  %121 = sext i32 %120 to i64
  %122 = getelementptr inbounds [100 x %struct.patient], [100 x %struct.patient]* %1, i64 0, i64 %121
  %123 = getelementptr inbounds %struct.patient, %struct.patient* %122, i32 0, i32 0
  %124 = getelementptr inbounds [10 x i8], [10 x i8]* %123, i64 0, i64 0
  %125 = call i32 (i8*, ...) @printf(i8* getelementptr inbounds ([4 x i8], [4 x i8]* @.str.2, i64 0, i64 0), i8* %124)
  br label %126

126:                                              ; preds = %119
  %127 = load i32, i32* %3, align 4
  %128 = add nsw i32 %127, 1
  store i32 %128, i32* %3, align 4
  br label %115

129:                                              ; preds = %115
  ret void
}

declare dso_local i32 @__isoc99_scanf(i8*, ...) #1

; Function Attrs: nounwind
declare dso_local i8* @strcpy(i8*, i8*) #2

declare dso_local i32 @printf(i8*, ...) #1


!llvm.module.flags = !{!0}
!llvm.ident = !{!1}

!0 = !{i32 1, !"wchar_size", i32 4}
!1 = !{!"clang version 10.0.0-4ubuntu1 "}
